; Function Attrs: nounwind uwtable
define zeroext i8 @l___private_Lean_Linter_UnusedVariables_0__Lean_Linter_UnusedVariables_hasSorry___lambda__1(ptr noundef %0) local_unnamed_addr #1 {
  %2 = load ptr, ptr @l___private_Lean_Linter_UnusedVariables_0__Lean_Linter_UnusedVariables_hasSorry___lambda__1___closed__2, align 8, !tbaa !4
  %3 = ptrtoint ptr %0 to i64
  %4 = and i64 %3, 1
  %.not = icmp eq i64 %4, 0
  br i1 %.not, label %5, label %lean_inc.exit16.thread

5:                                                ; preds = %1
  %.val.i = load i32, ptr %0, align 4, !tbaa !8
  %6 = icmp sgt i32 %.val.i, 0
  br i1 %6, label %7, label %9, !prof !11

7:                                                ; preds = %5
  %8 = add nuw i32 %.val.i, 1
  store i32 %8, ptr %0, align 4, !tbaa !8
  br label %lean_inc.exit16

9:                                                ; preds = %5
  %.not.i19 = icmp eq i32 %.val.i, 0
  br i1 %.not.i19, label %lean_inc.exit16, label %10

10:                                               ; preds = %9
  tail call void @lean_inc_ref_cold(ptr noundef nonnull %0) #7
  br label %lean_inc.exit16

lean_inc.exit16:                                  ; preds = %10, %9, %7
  %11 = tail call zeroext i8 @l_Lean_Syntax_isOfKind(ptr noundef nonnull %0, ptr noundef %2) #7
  %12 = icmp eq i8 %11, 0
  br i1 %12, label %15, label %37

lean_inc.exit16.thread:                           ; preds = %1
  %13 = tail call zeroext i8 @l_Lean_Syntax_isOfKind(ptr noundef %0, ptr noundef %2) #7
  %14 = icmp eq i8 %13, 0
  br i1 %14, label %lean_inc.exit.thread, label %lean_dec.exit15

15:                                               ; preds = %lean_inc.exit16
  %16 = load ptr, ptr @l___private_Lean_Linter_UnusedVariables_0__Lean_Linter_UnusedVariables_hasSorry___lambda__1___closed__4, align 8, !tbaa !4
  %.val.i20 = load i32, ptr %0, align 4, !tbaa !8
  %17 = icmp sgt i32 %.val.i20, 0
  br i1 %17, label %18, label %20, !prof !11

18:                                               ; preds = %15
  %19 = add nuw i32 %.val.i20, 1
  store i32 %19, ptr %0, align 4, !tbaa !8
  br label %lean_inc.exit

20:                                               ; preds = %15
  %.not.i21 = icmp eq i32 %.val.i20, 0
  br i1 %.not.i21, label %lean_inc.exit, label %21

21:                                               ; preds = %20
  tail call void @lean_inc_ref_cold(ptr noundef nonnull %0) #7
  br label %lean_inc.exit

lean_inc.exit:                                    ; preds = %21, %20, %18
  %22 = tail call zeroext i8 @l_Lean_Syntax_isOfKind(ptr noundef nonnull %0, ptr noundef %16) #7
  %23 = icmp eq i8 %22, 0
  br i1 %23, label %27, label %30

lean_inc.exit.thread:                             ; preds = %lean_inc.exit16.thread
  %24 = load ptr, ptr @l___private_Lean_Linter_UnusedVariables_0__Lean_Linter_UnusedVariables_hasSorry___lambda__1___closed__4, align 8, !tbaa !4
  %25 = tail call zeroext i8 @l_Lean_Syntax_isOfKind(ptr noundef %0, ptr noundef %24) #7
  %26 = icmp eq i8 %25, 0
  br i1 %26, label %27, label %lean_dec.exit15

27:                                               ; preds = %lean_inc.exit.thread, %lean_inc.exit
  %28 = load ptr, ptr @l___private_Lean_Linter_UnusedVariables_0__Lean_Linter_UnusedVariables_hasSorry___lambda__1___closed__6, align 8, !tbaa !4
  %29 = tail call zeroext i8 @l_Lean_Syntax_isOfKind(ptr noundef %0, ptr noundef %28) #7
  br label %lean_dec.exit15

30:                                               ; preds = %lean_inc.exit
  %31 = load i32, ptr %0, align 4, !tbaa !8
  %32 = icmp sgt i32 %31, 1
  br i1 %32, label %33, label %35, !prof !11

33:                                               ; preds = %30
  %34 = add nsw i32 %31, -1
  store i32 %34, ptr %0, align 4, !tbaa !8
  br label %lean_dec.exit15

35:                                               ; preds = %30
  %.not.i = icmp eq i32 %31, 0
  br i1 %.not.i, label %lean_dec.exit15, label %36

36:                                               ; preds = %35
  tail call void @lean_dec_ref_cold(ptr noundef nonnull %0) #7
  br label %lean_dec.exit15

37:                                               ; preds = %lean_inc.exit16
  %38 = load i32, ptr %0, align 4, !tbaa !8
  %39 = icmp sgt i32 %38, 1
  br i1 %39, label %40, label %42, !prof !11

40:                                               ; preds = %37
  %41 = add nsw i32 %38, -1
  store i32 %41, ptr %0, align 4, !tbaa !8
  br label %lean_dec.exit15

42:                                               ; preds = %37
  %.not.i17 = icmp eq i32 %38, 0
  br i1 %.not.i17, label %lean_dec.exit15, label %43

43:                                               ; preds = %42
  tail call void @lean_dec_ref_cold(ptr noundef nonnull %0) #7
  br label %lean_dec.exit15

lean_dec.exit15:                                  ; preds = %lean_inc.exit.thread, %lean_inc.exit16.thread, %40, %42, %43, %33, %35, %36, %27
  %.1 = phi i8 [ %29, %27 ], [ 1, %36 ], [ 1, %35 ], [ 1, %33 ], [ 1, %43 ], [ 1, %42 ], [ 1, %40 ], [ 1, %lean_inc.exit16.thread ], [ 1, %lean_inc.exit.thread ]
  ret i8 %.1
}